(lp0
(S'car'
p1
F0.7270365953445435
(F401.6279296875
F489.8287353515625
F793.6984252929688
F216.5579376220703
tp2
tp3
a(S'car'
p4
F0.5323197245597839
(F288.8692626953125
F308.90765380859375
F61.09960174560547
F41.23865509033203
tp5
tp6
a.