(lp0
(S'car'
p1
F0.7592750191688538
(F404.1786804199219
F487.974365234375
F782.7313232421875
F205.87649536132812
tp2
tp3
a(S'truck'
p4
F0.6369057893753052
(F392.2415466308594
F308.5129699707031
F27.00733757019043
F19.797998428344727
tp5
tp6
a.