(lp0
(S'truck'
p1
F0.7100805640220642
(F459.38482666015625
F308.1689758300781
F37.335357666015625
F32.350494384765625
tp2
tp3
a(S'car'
p4
F0.5172721743583679
(F402.4456481933594
F485.50830078125
F766.9110107421875
F221.42481994628906
tp5
tp6
a.