(lp0
(S'truck'
p1
F0.587588906288147
(F427.2655029296875
F307.10052490234375
F22.65865707397461
F16.06846809387207
tp2
tp3
a(S'car'
p4
F0.5779245495796204
(F427.2655029296875
F307.10052490234375
F22.65865707397461
F16.06846809387207
tp5
tp6
a(S'car'
p7
F0.5061807036399841
(F402.98785400390625
F486.3736267089844
F782.3175659179688
F218.31134033203125
tp8
tp9
a.