(lp0
(S'truck'
p1
F0.6228867769241333
(F129.26150512695312
F335.2207946777344
F168.29092407226562
F81.90583038330078
tp2
tp3
a(S'car'
p4
F0.5080589652061462
(F129.26150512695312
F335.2207946777344
F168.29092407226562
F81.90583038330078
tp5
tp6
a.