(lp0
(S'truck'
p1
F0.727978527545929
(F447.3726806640625
F307.60760498046875
F35.99216079711914
F35.35818099975586
tp2
tp3
a(S'car'
p4
F0.5921919941902161
(F405.2474060058594
F485.53729248046875
F776.3480224609375
F220.07489013671875
tp5
tp6
a.