(lp0
(S'truck'
p1
F0.944622278213501
(F207.4959259033203
F312.193115234375
F87.55423736572266
F66.7536849975586
tp2
tp3
a(S'car'
p4
F0.8261799216270447
(F402.08758544921875
F488.93292236328125
F785.203369140625
F219.73995971679688
tp5
tp6
a.