(lp0
(S'truck'
p1
F0.7002673149108887
(F117.12097930908203
F327.31988525390625
F143.9678497314453
F72.35731506347656
tp2
tp3
a(S'car'
p4
F0.6307156085968018
(F204.3364715576172
F309.7931823730469
F9.69721508026123
F8.983094215393066
tp5
tp6
a(S'car'
p7
F0.5714737176895142
(F400.6564636230469
F488.9598083496094
F784.9283447265625
F213.85726928710938
tp8
tp9
a.