(lp0
(S'car'
p1
F0.6963194608688354
(F402.4125061035156
F487.1711730957031
F779.8974609375
F209.8860321044922
tp2
tp3
a(S'truck'
p4
F0.5363478660583496
(F387.8242492675781
F308.5793762207031
F24.81214714050293
F20.0683650970459
tp5
tp6
a.