(lp0
(S'car'
p1
F0.7471738457679749
(F82.66213989257812
F402.56024169921875
F172.16043090820312
F276.7895812988281
tp2
tp3
a(S'car'
p4
F0.5709257125854492
(F282.7897644042969
F309.2220458984375
F10.082603454589844
F7.019864082336426
tp5
tp6
a.