(lp0
(S'car'
p1
F0.7866493463516235
(F401.84088134765625
F485.4974670410156
F780.4581909179688
F211.63465881347656
tp2
tp3
a(S'car'
p4
F0.7377179861068726
(F403.7212829589844
F305.6718444824219
F14.844289779663086
F11.468796730041504
tp5
tp6
a(S'car'
p7
F0.5430283546447754
(F380.06390380859375
F307.6871032714844
F7.940737247467041
F7.766508102416992
tp8
tp9
a.