(lp0
(S'car'
p1
F0.7546311020851135
(F400.5589904785156
F487.9877624511719
F794.135498046875
F224.61834716796875
tp2
tp3
a(S'truck'
p4
F0.6474888324737549
(F241.1342315673828
F310.2945556640625
F67.31813049316406
F45.899208068847656
tp5
tp6
a.