(lp0
(S'car'
p1
F0.8544796109199524
(F403.40972900390625
F487.5928039550781
F777.6582641601562
F205.46527099609375
tp2
tp3
a(S'car'
p4
F0.6983781456947327
(F403.07305908203125
F306.4261779785156
F14.547021865844727
F11.544214248657227
tp5
tp6
a(S'car'
p7
F0.5208432674407959
(F378.1197204589844
F308.3571472167969
F8.661588668823242
F7.163930892944336
tp8
tp9
a.