(lp0
(S'car'
p1
F0.6977716088294983
(F402.0007019042969
F488.8298034667969
F785.2069091796875
F216.4938201904297
tp2
tp3
a(S'truck'
p4
F0.5178511142730713
(F453.9289855957031
F305.8885498046875
F18.741519927978516
F14.36458969116211
tp5
tp6
a(S'car'
p7
F0.51601243019104
(F453.9289855957031
F305.8885498046875
F18.741519927978516
F14.36458969116211
tp8
tp9
a.