(lp0
(S'car'
p1
F0.751072883605957
(F399.7737731933594
F482.36407470703125
F781.7654418945312
F218.61643981933594
tp2
tp3
a(S'car'
p4
F0.6047006249427795
(F363.7541198730469
F306.78173828125
F13.585411071777344
F9.774584770202637
tp5
tp6
a(S'car'
p7
F0.5197606086730957
(F346.1274108886719
F307.27044677734375
F10.317436218261719
F9.069011688232422
tp8
tp9
a(S'car'
p10
F0.5024381875991821
(F374.17108154296875
F307.1994323730469
F10.352039337158203
F7.315924167633057
tp11
tp12
a.