(lp0
(S'car'
p1
F0.7576195597648621
(F403.9461669921875
F484.37518310546875
F783.6483764648438
F222.8260040283203
tp2
tp3
a(S'truck'
p4
F0.5844383835792542
(F378.2207336425781
F306.89666748046875
F24.982633590698242
F18.25481414794922
tp5
tp6
a(S'car'
p7
F0.5347833037376404
(F378.2207336425781
F306.89666748046875
F24.982633590698242
F18.25481414794922
tp8
tp9
a.