(lp0
(S'car'
p1
F0.7642783522605896
(F401.4862976074219
F486.62152099609375
F783.7402954101562
F214.1917266845703
tp2
tp3
a(S'car'
p4
F0.5158950686454773
(F405.3426818847656
F306.4950866699219
F14.220006942749023
F10.581997871398926
tp5
tp6
a.