(lp0
(S'car'
p1
F0.8965116739273071
(F139.47259521484375
F337.99285888671875
F180.11451721191406
F94.87785339355469
tp2
tp3
a(S'car'
p4
F0.701305627822876
(F400.3724060058594
F485.7388000488281
F787.6641235351562
F218.98812866210938
tp5
tp6
a.