(lp0
(S'car'
p1
F0.7532386779785156
(F402.7517395019531
F485.277587890625
F774.10693359375
F216.71986389160156
tp2
tp3
a(S'truck'
p4
F0.6707468032836914
(F451.5335998535156
F306.40594482421875
F37.15207290649414
F32.341896057128906
tp5
tp6
a.